; Function Attrs: mustprogress uwtable
define hidden void @_ZN4cvc58internal5proof19AlfProofPostprocessC2ERNS0_3EnvERNS1_16AlfNodeConverterE(ptr noundef nonnull align 8 dereferenceable(24) %this, ptr noundef nonnull align 8 dereferenceable(576) %env, ptr noundef nonnull align 8 dereferenceable(448) %ltp) unnamed_addr #3 align 2 personality ptr @__gxx_personality_v0 {
entry:
  tail call void @_ZN4cvc58internal6EnvObjC2ERNS0_3EnvE(ptr noundef nonnull align 8 dereferenceable(16) %this, ptr noundef nonnull align 8 dereferenceable(576) %env)
  store ptr getelementptr inbounds ({ [4 x ptr] }, ptr @_ZTVN4cvc58internal5proof19AlfProofPostprocessE, i64 0, i32 0, i64 2), ptr %this, align 8
  %call = tail call noalias noundef nonnull dereferenceable(80) ptr @_Znwm(i64 noundef 80) #15
  %call4 = invoke noundef ptr @_ZN4cvc58internal3Env19getProofNodeManagerEv(ptr noundef nonnull align 8 dereferenceable(576) %env)
          to label %invoke.cont3 unwind label %lpad2

invoke.cont3:                                     ; preds = %entry
  invoke void @_ZN4cvc58internal24ProofNodeUpdaterCallbackC2Ev(ptr noundef nonnull align 8 dereferenceable(8) %call)
          to label %invoke.cont5 unwind label %lpad2

invoke.cont5:                                     ; preds = %invoke.cont3
  store ptr getelementptr inbounds ({ [8 x ptr] }, ptr @_ZTVN4cvc58internal5proof27AlfProofPostprocessCallbackE, i64 0, i32 0, i64 2), ptr %call, align 8
  %d_pnm.i = getelementptr inbounds i8, ptr %call, i64 8
  store ptr %call4, ptr %d_pnm.i, align 8
  %d_tproc.i = getelementptr inbounds i8, ptr %call, i64 16
  store ptr %ltp, ptr %d_tproc.i, align 8
  %d_numIgnoredScopes.i = getelementptr inbounds i8, ptr %call, i64 24
  store i8 0, ptr %d_numIgnoredScopes.i, align 8
  %0 = getelementptr inbounds i8, ptr %call, i64 40
  store i32 0, ptr %0, align 8
  %_M_parent.i.i.i.i.i.i = getelementptr inbounds i8, ptr %call, i64 48
  store ptr null, ptr %_M_parent.i.i.i.i.i.i, align 8
  %_M_left.i.i.i.i.i.i = getelementptr inbounds i8, ptr %call, i64 56
  store ptr %0, ptr %_M_left.i.i.i.i.i.i, align 8
  %_M_right.i.i.i.i.i.i = getelementptr inbounds i8, ptr %call, i64 64
  store ptr %0, ptr %_M_right.i.i.i.i.i.i, align 8
  %_M_node_count.i.i.i.i.i.i = getelementptr inbounds i8, ptr %call, i64 72
  store i64 0, ptr %_M_node_count.i.i.i.i.i.i, align 8
  %d_cb = getelementptr inbounds i8, ptr %this, i64 16
  store ptr %call, ptr %d_cb, align 8
  ret void

lpad2:                                            ; preds = %invoke.cont3, %entry
  %1 = landingpad { ptr, i32 }
          cleanup
  tail call void @_ZdlPv(ptr noundef nonnull %call) #16
  resume { ptr, i32 } %1
}